target datalayout = "e-m:e-p270:32:32-p271:32:32-p272:64:64-i64:64-i128:128-f80:128-n8:16:32:64-S128"
target triple = "x86_64-pc-linux-gnu"

%struct._packet_info = type { ptr, ptr, i32, i32, %struct.nstime_t, %struct.nstime_t, %struct.nstime_t, i8, ptr, ptr, ptr, ptr, %struct._address, %struct._address, %struct._address, %struct._address, %struct._address, %struct._address, i32, ptr, i8, [3 x i8], %struct.anon, i32, i32, i32, i32, ptr, i8, ptr, ptr, i16, i16, i32, i32, i16, i32, i32, ptr, ptr, ptr, i8, i8, i16, i16, i16, i32, i16, i16, ptr, ptr, ptr, ptr, ptr, i32, i32 }
%struct.nstime_t = type { i64, i32 }
%struct._address = type { i32, i32, ptr, ptr }
%struct.anon = type { i8, [3 x i8] }
%struct._frame_data = type <{ i32, i32, i32, i32, i32, [4 x i8], i64, ptr, ptr, ptr, i8, i16, [5 x i8], %struct.nstime_t, %struct.nstime_t, i32, i32 }>
%struct._proto_data = type { i32, i32, ptr }

@.str = private unnamed_addr constant [29 x i8] c"%s:%u: failed assertion \22%s\22\00", align 1
@.str.1 = private unnamed_addr constant [18 x i8] c"epan/proto_data.c\00", align 1
@.str.2 = private unnamed_addr constant [22 x i8] c"!\22invalid wmem scope\22\00", align 1
@.str.3 = private unnamed_addr constant [13 x i8] c"[%s, key %u]\00", align 1

; Function Attrs: null_pointer_is_valid sspstrong uwtable
define hidden ptr @p_get_proto_name_and_key(ptr noundef %0, ptr noundef %1, i32 noundef %2) #0 {
  %4 = alloca ptr, align 8
  %5 = alloca ptr, align 8
  %6 = alloca i32, align 4
  %7 = alloca ptr, align 8
  store ptr %0, ptr %4, align 8
  store ptr %1, ptr %5, align 8
  store i32 %2, ptr %6, align 4
  call void @llvm.lifetime.start.p0(i64 8, ptr %7) #6
  %8 = load ptr, ptr %4, align 8
  %9 = load ptr, ptr %5, align 8
  %10 = getelementptr inbounds nuw %struct._packet_info, ptr %9, i32 0, i32 51
  %11 = load ptr, ptr %10, align 8
  %12 = icmp eq ptr %8, %11
  br i1 %12, label %13, label %19

13:                                               ; preds = %3
  %14 = load ptr, ptr %5, align 8
  %15 = getelementptr inbounds nuw %struct._packet_info, ptr %14, i32 0, i32 49
  %16 = load ptr, ptr %15, align 8
  %17 = load i32, ptr %6, align 4
  %18 = call ptr @g_slist_nth_data(ptr noundef %16, i32 noundef %17)
  store ptr %18, ptr %7, align 8
  br label %33

19:                                               ; preds = %3
  %20 = load ptr, ptr %4, align 8
  %21 = call ptr @wmem_file_scope()
  %22 = icmp eq ptr %20, %21
  br i1 %22, label %23, label %31

23:                                               ; preds = %19
  %24 = load ptr, ptr %5, align 8
  %25 = getelementptr inbounds nuw %struct._packet_info, ptr %24, i32 0, i32 8
  %26 = load ptr, ptr %25, align 8
  %27 = getelementptr inbounds nuw %struct._frame_data, ptr %26, i32 0, i32 7
  %28 = load ptr, ptr %27, align 8
  %29 = load i32, ptr %6, align 4
  %30 = call ptr @g_slist_nth_data(ptr noundef %28, i32 noundef %29)
  store ptr %30, ptr %7, align 8
  br label %32

31:                                               ; preds = %19
  call void (ptr, ...) @proto_report_dissector_bug(ptr noundef @.str, ptr noundef @.str.1, i32 noundef 164, ptr noundef @.str.2) #7
  unreachable

32:                                               ; preds = %23
  br label %33

33:                                               ; preds = %32, %13
  %34 = load ptr, ptr %5, align 8
  %35 = getelementptr inbounds nuw %struct._packet_info, ptr %34, i32 0, i32 51
  %36 = load ptr, ptr %35, align 8
  %37 = load ptr, ptr %7, align 8
  %38 = getelementptr inbounds nuw %struct._proto_data, ptr %37, i32 0, i32 0
  %39 = load i32, ptr %38, align 8
  %40 = call ptr @proto_get_protocol_name(i32 noundef %39)
  %41 = load ptr, ptr %7, align 8
  %42 = getelementptr inbounds nuw %struct._proto_data, ptr %41, i32 0, i32 1
  %43 = load i32, ptr %42, align 4
  %44 = call noalias ptr (ptr, ptr, ...) @wmem_strdup_printf(ptr noundef %36, ptr noundef @.str.3, ptr noundef %40, i32 noundef %43)
  call void @llvm.lifetime.end.p0(i64 8, ptr %7) #6
  ret ptr %44
}