; Function Attrs: null_pointer_is_valid sspstrong uwtable
define hidden noalias ptr @p_get_proto_name_and_key(ptr noundef readnone captures(address) %0, ptr noundef readonly captures(none) %1, i32 noundef %2) local_unnamed_addr #0 {
  %4 = getelementptr inbounds nuw i8, ptr %1, i64 408
  %5 = load ptr, ptr %4, align 8
  %6 = icmp eq ptr %0, %5
  br i1 %6, label %7, label %9

7:                                                ; preds = %3
  %8 = getelementptr inbounds nuw i8, ptr %1, i64 392
  br label %17

9:                                                ; preds = %3
  %10 = tail call ptr @wmem_file_scope()
  %11 = icmp eq ptr %0, %10
  br i1 %11, label %12, label %16

12:                                               ; preds = %9
  %13 = getelementptr inbounds nuw i8, ptr %1, i64 80
  %14 = load ptr, ptr %13, align 8
  %15 = getelementptr inbounds nuw i8, ptr %14, i64 32
  br label %17

16:                                               ; preds = %9
  tail call void (ptr, ...) @proto_report_dissector_bug(ptr noundef nonnull @.str, ptr noundef nonnull @.str.1, i32 noundef 164, ptr noundef nonnull @.str.2) #6
  unreachable

17:                                               ; preds = %12, %7
  %.sink.in = phi ptr [ %15, %12 ], [ %8, %7 ]
  %.sink = load ptr, ptr %.sink.in, align 8
  %18 = tail call ptr @g_slist_nth_data(ptr noundef %.sink, i32 noundef %2)
  %19 = load ptr, ptr %4, align 8
  %20 = load i32, ptr %18, align 8
  %21 = tail call ptr @proto_get_protocol_name(i32 noundef %20)
  %22 = getelementptr inbounds nuw i8, ptr %18, i64 4
  %23 = load i32, ptr %22, align 4
  %24 = tail call noalias ptr (ptr, ptr, ...) @wmem_strdup_printf(ptr noundef %19, ptr noundef nonnull @.str.3, ptr noundef %21, i32 noundef %23)
  ret ptr %24
}